target datalayout = "e-m:e-p270:32:32-p271:32:32-p272:64:64-i64:64-i128:128-f80:128-n8:16:32:64-S128"
target triple = "x86_64-unknown-linux-gnu"

%"class.absl::profiling_internal::ExponentialBiased" = type <{ i64, double, i8, [7 x i8] }>

@.str.13 = private unnamed_addr constant [21 x i8] c"Samples = %d (%f%%)\0A\00", align 1

; Function Attrs: mustprogress nounwind uwtable
define linkonce_odr dso_local void @_ZN4absl18profiling_internal17ExponentialBiasedC2Ev(ptr noundef nonnull align 8 dereferenceable(17) %this) unnamed_addr #7 comdat align 2 {
entry:
  %this.addr = alloca ptr, align 8
  store ptr %this, ptr %this.addr, align 8
  %this1 = load ptr, ptr %this.addr, align 8
  %rng_ = getelementptr inbounds %"class.absl::profiling_internal::ExponentialBiased", ptr %this1, i32 0, i32 0
  store i64 0, ptr %rng_, align 8
  %bias_ = getelementptr inbounds %"class.absl::profiling_internal::ExponentialBiased", ptr %this1, i32 0, i32 1
  store double 0.000000e+00, ptr %bias_, align 8
  %initialized_ = getelementptr inbounds %"class.absl::profiling_internal::ExponentialBiased", ptr %this1, i32 0, i32 2
  store i8 0, ptr %initialized_, align 8
  ret void
}

; Function Attrs: mustprogress uwtable
define internal void @_ZN4absl18profiling_internal12_GLOBAL__N_147ExponentialBiasedTest_SampleDemoWithStride_Test8TestBodyEv(ptr noundef nonnull align 8 dereferenceable(16) %this) unnamed_addr #4 align 2 {
entry:
  %this.addr = alloca ptr, align 8
  %eb = alloca %"class.absl::profiling_internal::ExponentialBiased", align 8
  %stride = alloca i64, align 8
  %samples = alloca i32, align 4
  %i = alloca i32, align 4
  store ptr %this, ptr %this.addr, align 8
  call void @_ZN4absl18profiling_internal17ExponentialBiasedC2Ev(ptr noundef nonnull align 8 dereferenceable(17) %eb) #3
  %call = call noundef i64 @_ZN4absl18profiling_internal17ExponentialBiased9GetStrideEl(ptr noundef nonnull align 8 dereferenceable(17) %eb, i64 noundef 10)
  store i64 %call, ptr %stride, align 8
  store i32 0, ptr %samples, align 4
  store i32 0, ptr %i, align 4
  br label %for.cond

for.cond:                                         ; preds = %for.inc, %entry
  %0 = load i32, ptr %i, align 4
  %cmp = icmp slt i32 %0, 10000000
  br i1 %cmp, label %for.body, label %for.end

for.body:                                         ; preds = %for.cond
  %1 = load i64, ptr %stride, align 8
  %dec = add nsw i64 %1, -1
  store i64 %dec, ptr %stride, align 8
  %cmp2 = icmp eq i64 %dec, 0
  br i1 %cmp2, label %if.then, label %if.end

if.then:                                          ; preds = %for.body
  %2 = load i32, ptr %samples, align 4
  %inc = add nsw i32 %2, 1
  store i32 %inc, ptr %samples, align 4
  %call3 = call noundef i64 @_ZN4absl18profiling_internal17ExponentialBiased9GetStrideEl(ptr noundef nonnull align 8 dereferenceable(17) %eb, i64 noundef 10)
  store i64 %call3, ptr %stride, align 8
  br label %if.end

if.end:                                           ; preds = %if.then, %for.body
  br label %for.inc

for.inc:                                          ; preds = %if.end
  %3 = load i32, ptr %i, align 4
  %inc4 = add nsw i32 %3, 1
  store i32 %inc4, ptr %i, align 4
  br label %for.cond, !llvm.loop !9

for.end:                                          ; preds = %for.cond
  %4 = load i32, ptr %samples, align 4
  %5 = load i32, ptr %samples, align 4
  %conv = sitofp i32 %5 to double
  %mul = fmul double 1.000000e+02, %conv
  %div = fdiv double %mul, 1.000000e+07
  %call5 = call i32 (ptr, ...) @printf(ptr noundef @.str.13, i32 noundef %4, double noundef %div)
  ret void
}