; Function Attrs: mustprogress uwtable
define internal void @_ZN4absl18profiling_internal12_GLOBAL__N_147ExponentialBiasedTest_SampleDemoWithStride_Test8TestBodyEv(ptr nocapture nonnull readnone align 8 %this) unnamed_addr #3 align 2 {
entry:
  %eb = alloca %"class.absl::profiling_internal::ExponentialBiased", align 8
  call void @llvm.memset.p0.i64(ptr noundef nonnull align 8 dereferenceable(17) %eb, i8 0, i64 17, i1 false)
  %call = call noundef i64 @_ZN4absl18profiling_internal17ExponentialBiased9GetStrideEl(ptr noundef nonnull align 8 dereferenceable(17) %eb, i64 noundef 10)
  br label %for.body

for.body:                                         ; preds = %entry, %for.inc
  %i.06 = phi i32 [ 0, %entry ], [ %inc4, %for.inc ]
  %samples.05 = phi i32 [ 0, %entry ], [ %samples.1, %for.inc ]
  %stride.04 = phi i64 [ %call, %entry ], [ %stride.1, %for.inc ]
  %dec = add nsw i64 %stride.04, -1
  %cmp2 = icmp eq i64 %dec, 0
  br i1 %cmp2, label %if.then, label %for.inc

if.then:                                          ; preds = %for.body
  %inc = add nsw i32 %samples.05, 1
  %call3 = call noundef i64 @_ZN4absl18profiling_internal17ExponentialBiased9GetStrideEl(ptr noundef nonnull align 8 dereferenceable(17) %eb, i64 noundef 10)
  br label %for.inc

for.inc:                                          ; preds = %for.body, %if.then
  %stride.1 = phi i64 [ %call3, %if.then ], [ %dec, %for.body ]
  %samples.1 = phi i32 [ %inc, %if.then ], [ %samples.05, %for.body ]
  %inc4 = add nuw nsw i32 %i.06, 1
  %exitcond.not = icmp eq i32 %inc4, 10000000
  br i1 %exitcond.not, label %for.end, label %for.body, !llvm.loop !9

for.end:                                          ; preds = %for.inc
  %conv = sitofp i32 %samples.1 to double
  %mul = fmul double %conv, 1.000000e+02
  %div = fdiv double %mul, 1.000000e+07
  %call5 = call i32 (ptr, ...) @printf(ptr noundef nonnull dereferenceable(1) @.str.13, i32 noundef %samples.1, double noundef %div)
  ret void
}